; Function Attrs: nounwind uwtable
define internal ptr @type___dir__(ptr noundef %0, ptr readnone captures(none) %1) #1 {
  %3 = tail call ptr @PyDict_New() #24
  %.not.i = icmp eq ptr %3, null
  br i1 %.not.i, label %type___dir___impl.exit, label %4

4:                                                ; preds = %2
  %5 = tail call fastcc i32 @merge_class_dict(ptr noundef nonnull %3, ptr noundef %0)
  %6 = icmp eq i32 %5, 0
  br i1 %6, label %7, label %9

7:                                                ; preds = %4
  %8 = tail call ptr @PyDict_Keys(ptr noundef nonnull %3) #24
  br label %9

9:                                                ; preds = %7, %4
  %.0.ph.i = phi ptr [ null, %4 ], [ %8, %7 ]
  %10 = load i32, ptr %3, align 8, !tbaa !102
  %.not.i.i.i = icmp sgt i32 %10, -1
  br i1 %.not.i.i.i, label %11, label %type___dir___impl.exit

11:                                               ; preds = %9
  %12 = add nsw i32 %10, -1
  store i32 %12, ptr %3, align 8, !tbaa !102
  %13 = icmp eq i32 %12, 0
  br i1 %13, label %14, label %type___dir___impl.exit

14:                                               ; preds = %11
  tail call void @_Py_Dealloc(ptr noundef nonnull %3) #24
  br label %type___dir___impl.exit

type___dir___impl.exit:                           ; preds = %2, %9, %11, %14
  %.09.i = phi ptr [ %.0.ph.i, %9 ], [ %.0.ph.i, %11 ], [ %.0.ph.i, %14 ], [ null, %2 ]
  ret ptr %.09.i
}